; Function Attrs: mustprogress nofree norecurse nosync nounwind willreturn memory(argmem: write) uwtable
define noundef nonnull ptr @_ZN7rocksdb19ColumnFamilyOptions32OptimizeUniversalStyleCompactionEm(ptr noundef nonnull returned writeonly align 8 dereferenceable(820) %this, i64 noundef %memtable_memory_budget) local_unnamed_addr #8 align 2 {
entry:
  %div1 = lshr i64 %memtable_memory_budget, 2
  %write_buffer_size = getelementptr inbounds i8, ptr %this, i64 568
  store i64 %div1, ptr %write_buffer_size, align 8
  %min_write_buffer_number_to_merge = getelementptr inbounds i8, ptr %this, i64 4
  store i32 2, ptr %min_write_buffer_number_to_merge, align 4
  store i32 6, ptr %this, align 8
  %compaction_style = getelementptr inbounds i8, ptr %this, i64 232
  store i8 1, ptr %compaction_style, align 8
  %compression_size_percent = getelementptr inbounds i8, ptr %this, i64 252
  store i32 80, ptr %compression_size_percent, align 4
  ret ptr %this
}